; ModuleID = '11/170.c'
source_filename = "11/170.c"
target datalayout = "e-m:e-p270:32:32-p271:32:32-p272:64:64-i64:64-f80:128-n8:16:32:64-S128"
target triple = "x86_64-pc-linux-gnu"

@.str = private unnamed_addr constant [7 x i8] c"%d%d%d\00", align 1
@.str.1 = private unnamed_addr constant [4 x i8] c"%d\0A\00", align 1

; Function Attrs: noinline nounwind uwtable
define dso_local i32 @main() #0 {
  %1 = alloca i32, align 4
  %2 = alloca i32, align 4
  %3 = alloca i32, align 4
  %4 = alloca i32, align 4
  %5 = alloca i32, align 4
  %6 = alloca i32, align 4
  store i32 0, i32* %1, align 4
  store i32 0, i32* %6, align 4
  %7 = call i32 (i8*, ...) @__isoc99_scanf(i8* getelementptr inbounds ([7 x i8], [7 x i8]* @.str, i64 0, i64 0), i32* %3, i32* %4, i32* %5)
  store i32 1, i32* %2, align 4
  br label %8

8:                                                ; preds = %54, %0
  %9 = load i32, i32* %2, align 4
  %10 = load i32, i32* %4, align 4
  %11 = icmp slt i32 %9, %10
  br i1 %11, label %12, label %57

12:                                               ; preds = %8
  %13 = load i32, i32* %2, align 4
  %14 = icmp eq i32 %13, 4
  br i1 %14, label %24, label %15

15:                                               ; preds = %12
  %16 = load i32, i32* %2, align 4
  %17 = icmp eq i32 %16, 6
  br i1 %17, label %24, label %18

18:                                               ; preds = %15
  %19 = load i32, i32* %2, align 4
  %20 = icmp eq i32 %19, 9
  br i1 %20, label %24, label %21

21:                                               ; preds = %18
  %22 = load i32, i32* %2, align 4
  %23 = icmp eq i32 %22, 11
  br i1 %23, label %24, label %27

24:                                               ; preds = %21, %18, %15, %12
  %25 = load i32, i32* %6, align 4
  %26 = add nsw i32 %25, 30
  store i32 %26, i32* %6, align 4
  br label %53

27:                                               ; preds = %21
  %28 = load i32, i32* %2, align 4
  %29 = icmp eq i32 %28, 2
  br i1 %29, label %30, label %49

30:                                               ; preds = %27
  %31 = load i32, i32* %3, align 4
  %32 = srem i32 %31, 100
  %33 = icmp ne i32 %32, 0
  br i1 %33, label %34, label %38

34:                                               ; preds = %30
  %35 = load i32, i32* %3, align 4
  %36 = srem i32 %35, 4
  %37 = icmp eq i32 %36, 0
  br i1 %37, label %42, label %38

38:                                               ; preds = %34, %30
  %39 = load i32, i32* %3, align 4
  %40 = srem i32 %39, 400
  %41 = icmp eq i32 %40, 0
  br i1 %41, label %42, label %45

42:                                               ; preds = %38, %34
  %43 = load i32, i32* %6, align 4
  %44 = add nsw i32 %43, 29
  store i32 %44, i32* %6, align 4
  br label %48

45:                                               ; preds = %38
  %46 = load i32, i32* %6, align 4
  %47 = add nsw i32 %46, 28
  store i32 %47, i32* %6, align 4
  br label %48

48:                                               ; preds = %45, %42
  br label %52

49:                                               ; preds = %27
  %50 = load i32, i32* %6, align 4
  %51 = add nsw i32 %50, 31
  store i32 %51, i32* %6, align 4
  br label %52

52:                                               ; preds = %49, %48
  br label %53

53:                                               ; preds = %52, %24
  br label %54

54:                                               ; preds = %53
  %55 = load i32, i32* %2, align 4
  %56 = add nsw i32 %55, 1
  store i32 %56, i32* %2, align 4
  br label %8

57:                                               ; preds = %8
  %58 = load i32, i32* %6, align 4
  %59 = load i32, i32* %5, align 4
  %60 = add nsw i32 %58, %59
  store i32 %60, i32* %6, align 4
  %61 = load i32, i32* %6, align 4
  %62 = call i32 (i8*, ...) @printf(i8* getelementptr inbounds ([4 x i8], [4 x i8]* @.str.1, i64 0, i64 0), i32 %61)
  ret i32 0
}

declare dso_local i32 @__isoc99_scanf(i8*, ...) #1

declare dso_local i32 @printf(i8*, ...) #1


!llvm.module.flags = !{!0}
!llvm.ident = !{!1}

!0 = !{i32 1, !"wchar_size", i32 4}
!1 = !{!"clang version 10.0.0-4ubuntu1 "}
